target datalayout = "e-m:e-p270:32:32-p271:32:32-p272:64:64-i64:64-i128:128-f80:128-n8:16:32:64-S128"
target triple = "x86_64-pc-linux-gnu"

; Function Attrs: nounwind uwtable
define ptr @Gia_ManGenPerm2(i32 noundef %0) #0 {
  %2 = alloca i32, align 4
  %3 = alloca i32, align 4
  %4 = alloca ptr, align 8
  store i32 %0, ptr %2, align 4, !tbaa !8
  call void @llvm.lifetime.start.p0(i64 4, ptr %3) #12
  call void @llvm.lifetime.start.p0(i64 8, ptr %4) #12
  %5 = load i32, ptr %2, align 4, !tbaa !8
  %6 = sext i32 %5 to i64
  %7 = call noalias ptr @calloc(i64 noundef %6, i64 noundef 4) #16
  store ptr %7, ptr %4, align 8, !tbaa !10
  %8 = call i64 @time(ptr noundef null) #12
  %9 = trunc i64 %8 to i32
  call void @srand(i32 noundef %9) #12
  store i32 0, ptr %3, align 4, !tbaa !8
  br label %10

10:                                               ; preds = %22, %1
  %11 = load i32, ptr %3, align 4, !tbaa !8
  %12 = load i32, ptr %2, align 4, !tbaa !8
  %13 = icmp slt i32 %11, %12
  br i1 %13, label %14, label %25

14:                                               ; preds = %10
  %15 = call i32 @rand() #12
  %16 = load i32, ptr %2, align 4, !tbaa !8
  %17 = srem i32 %15, %16
  %18 = load ptr, ptr %4, align 8, !tbaa !10
  %19 = load i32, ptr %3, align 4, !tbaa !8
  %20 = sext i32 %19 to i64
  %21 = getelementptr inbounds i32, ptr %18, i64 %20
  store i32 %17, ptr %21, align 4, !tbaa !8
  br label %22

22:                                               ; preds = %14
  %23 = load i32, ptr %3, align 4, !tbaa !8
  %24 = add nsw i32 %23, 1
  store i32 %24, ptr %3, align 4, !tbaa !8
  br label %10, !llvm.loop !77

25:                                               ; preds = %10
  %26 = load ptr, ptr %4, align 8, !tbaa !10
  call void @llvm.lifetime.end.p0(i64 8, ptr %4) #12
  call void @llvm.lifetime.end.p0(i64 4, ptr %3) #12
  ret ptr %26
}