; Function Attrs: nounwind uwtable
define noalias noundef ptr @Gia_ManGenPerm2(i32 noundef %0) local_unnamed_addr #2 {
  %2 = sext i32 %0 to i64
  %3 = tail call noalias ptr @calloc(i64 noundef %2, i64 noundef 4) #28
  %4 = tail call i64 @time(ptr noundef null) #26
  %5 = trunc i64 %4 to i32
  tail call void @srand(i32 noundef %5) #26
  %6 = icmp sgt i32 %0, 0
  br i1 %6, label %.lr.ph.preheader, label %._crit_edge

.lr.ph.preheader:                                 ; preds = %1
  %wide.trip.count = zext nneg i32 %0 to i64
  br label %.lr.ph

.lr.ph:                                           ; preds = %.lr.ph.preheader, %.lr.ph
  %indvars.iv = phi i64 [ 0, %.lr.ph.preheader ], [ %indvars.iv.next, %.lr.ph ]
  %7 = tail call i32 @rand() #26
  %8 = srem i32 %7, %0
  %9 = getelementptr inbounds nuw i32, ptr %3, i64 %indvars.iv
  store i32 %8, ptr %9, align 4, !tbaa !11
  %indvars.iv.next = add nuw nsw i64 %indvars.iv, 1
  %exitcond.not = icmp eq i64 %indvars.iv.next, %wide.trip.count
  br i1 %exitcond.not, label %._crit_edge, label %.lr.ph, !llvm.loop !70

._crit_edge:                                      ; preds = %.lr.ph, %1
  ret ptr %3
}